; Function Attrs: mustprogress ssp uwtable
define void @_ZN6open3d7utility11ProgressBarC2EmRKNSt7__cxx1112basic_stringIcSt11char_traitsIcESaIcEEEb(ptr noundef nonnull align 8 dereferenceable(73) initializes((0, 16)) %0, i64 noundef %1, ptr noundef nonnull align 8 dereferenceable(32) %2, i1 noundef zeroext %3) unnamed_addr #0 align 2 personality ptr @__gxx_personality_v0 {
  store ptr getelementptr inbounds nuw inrange(-16, 24) (i8, ptr @_ZTVN6open3d7utility11ProgressBarE, i64 16), ptr %0, align 8, !tbaa !14
  %5 = getelementptr inbounds nuw i8, ptr %0, i64 8
  store i64 40, ptr %5, align 8, !tbaa !19
  %6 = getelementptr inbounds nuw i8, ptr %0, i64 32
  %7 = getelementptr inbounds nuw i8, ptr %0, i64 48
  store ptr %7, ptr %6, align 8, !tbaa !20
  %8 = getelementptr inbounds nuw i8, ptr %0, i64 40
  store i64 0, ptr %8, align 8, !tbaa !17
  store i8 0, ptr %7, align 8, !tbaa !18
  %9 = getelementptr inbounds nuw i8, ptr %0, i64 16
  store i64 %1, ptr %9, align 8, !tbaa !21
  %10 = getelementptr inbounds nuw i8, ptr %0, i64 24
  store i64 -1, ptr %10, align 8, !tbaa !4
  invoke void @_ZNSt7__cxx1112basic_stringIcSt11char_traitsIcESaIcEE9_M_assignERKS4_(ptr noundef nonnull align 8 dereferenceable(32) %6, ptr noundef nonnull align 8 dereferenceable(32) %2)
          to label %.noexc unwind label %17

.noexc:                                           ; preds = %4
  %11 = zext i1 %3 to i8
  %12 = getelementptr inbounds nuw i8, ptr %0, i64 64
  store i64 0, ptr %12, align 8, !tbaa !22
  %13 = getelementptr inbounds nuw i8, ptr %0, i64 72
  store i8 %11, ptr %13, align 8, !tbaa !23
  %14 = load ptr, ptr %0, align 8, !tbaa !14
  %15 = load ptr, ptr %14, align 8
  %16 = invoke noundef nonnull align 8 dereferenceable(73) ptr %15(ptr noundef nonnull align 8 dereferenceable(73) %0)
          to label %_ZN6open3d7utility11ProgressBar5ResetEmRKNSt7__cxx1112basic_stringIcSt11char_traitsIcESaIcEEEb.exit unwind label %17

_ZN6open3d7utility11ProgressBar5ResetEmRKNSt7__cxx1112basic_stringIcSt11char_traitsIcESaIcEEEb.exit: ; preds = %.noexc
  ret void

17:                                               ; preds = %.noexc, %4
  %18 = landingpad { ptr, i32 }
          cleanup
  %19 = load ptr, ptr %6, align 8, !tbaa !16
  %20 = icmp eq ptr %19, %7
  br i1 %20, label %_ZNKSt7__cxx1112basic_stringIcSt11char_traitsIcESaIcEE11_M_is_localEv.exit.thread.i.i, label %_ZNKSt7__cxx1112basic_stringIcSt11char_traitsIcESaIcEE11_M_is_localEv.exit.i.i

_ZNKSt7__cxx1112basic_stringIcSt11char_traitsIcESaIcEE11_M_is_localEv.exit.thread.i.i: ; preds = %17
  %21 = load i64, ptr %8, align 8, !tbaa !17
  %22 = icmp ult i64 %21, 16
  tail call void @llvm.assume(i1 %22)
  br label %_ZNSt7__cxx1112basic_stringIcSt11char_traitsIcESaIcEED2Ev.exit

_ZNKSt7__cxx1112basic_stringIcSt11char_traitsIcESaIcEE11_M_is_localEv.exit.i.i: ; preds = %17
  %23 = load i64, ptr %7, align 8, !tbaa !18
  %24 = add i64 %23, 1
  tail call void @_ZdlPvm(ptr noundef %19, i64 noundef %24) #29
  br label %_ZNSt7__cxx1112basic_stringIcSt11char_traitsIcESaIcEED2Ev.exit

_ZNSt7__cxx1112basic_stringIcSt11char_traitsIcESaIcEED2Ev.exit: ; preds = %_ZNKSt7__cxx1112basic_stringIcSt11char_traitsIcESaIcEE11_M_is_localEv.exit.thread.i.i, %_ZNKSt7__cxx1112basic_stringIcSt11char_traitsIcESaIcEE11_M_is_localEv.exit.i.i
  resume { ptr, i32 } %18
}